target datalayout = "e-m:e-p270:32:32-p271:32:32-p272:64:64-i64:64-i128:128-f80:128-n8:16:32:64-S128"
target triple = "x86_64-pc-linux-gnu"

%"class.zxing::qrcode::Version" = type <{ %"class.zxing::Counted.base", i32, ptr, %"class.std::vector.5", i32, [4 x i8] }>
%"class.zxing::Counted.base" = type <{ ptr, i32 }>
%"class.std::vector.5" = type { %"struct.std::_Vector_base.6" }
%"struct.std::_Vector_base.6" = type { %"struct.std::_Vector_base<zxing::qrcode::ECBlocks *, std::allocator<zxing::qrcode::ECBlocks *>>::_Vector_impl" }
%"struct.std::_Vector_base<zxing::qrcode::ECBlocks *, std::allocator<zxing::qrcode::ECBlocks *>>::_Vector_impl" = type { %"struct.std::_Vector_base<zxing::qrcode::ECBlocks *, std::allocator<zxing::qrcode::ECBlocks *>>::_Vector_impl_data" }
%"struct.std::_Vector_base<zxing::qrcode::ECBlocks *, std::allocator<zxing::qrcode::ECBlocks *>>::_Vector_impl_data" = type { ptr, ptr, ptr }

; Function Attrs: mustprogress nounwind uwtable
define linkonce_odr hidden noundef nonnull align 8 dereferenceable(8) ptr @_ZNSt6vectorIPN5zxing6qrcode8ECBlocksESaIS3_EEixEm(ptr noundef nonnull align 8 dereferenceable(24) %0, i64 noundef %1) #0 comdat align 2 {
  %3 = alloca ptr, align 8
  %4 = alloca i64, align 8
  store ptr %0, ptr %3, align 8
  store i64 %1, ptr %4, align 8
  %5 = load ptr, ptr %3, align 8
  %6 = getelementptr inbounds %"struct.std::_Vector_base.6", ptr %5, i32 0, i32 0
  %7 = getelementptr inbounds %"struct.std::_Vector_base<zxing::qrcode::ECBlocks *, std::allocator<zxing::qrcode::ECBlocks *>>::_Vector_impl_data", ptr %6, i32 0, i32 0
  %8 = load ptr, ptr %7, align 8
  %9 = load i64, ptr %4, align 8
  %10 = getelementptr inbounds ptr, ptr %8, i64 %9
  ret ptr %10
}

; Function Attrs: mustprogress uwtable
define hidden noundef nonnull align 8 dereferenceable(32) ptr @_ZN5zxing6qrcode7Version19getECBlocksForLevelERNS0_20ErrorCorrectionLevelE(ptr noundef nonnull align 8 dereferenceable(52) %0, ptr noundef nonnull align 8 dereferenceable(40) %1) #1 align 2 {
  %3 = alloca ptr, align 8
  %4 = alloca ptr, align 8
  store ptr %0, ptr %3, align 8
  store ptr %1, ptr %4, align 8
  %5 = load ptr, ptr %3, align 8
  %6 = getelementptr inbounds %"class.zxing::qrcode::Version", ptr %5, i32 0, i32 3
  %7 = load ptr, ptr %4, align 8
  %8 = call noundef i32 @_ZNK5zxing6qrcode20ErrorCorrectionLevel7ordinalEv(ptr noundef nonnull align 8 dereferenceable(40) %7)
  %9 = sext i32 %8 to i64
  %10 = call noundef nonnull align 8 dereferenceable(8) ptr @_ZNSt6vectorIPN5zxing6qrcode8ECBlocksESaIS3_EEixEm(ptr noundef nonnull align 8 dereferenceable(24) %6, i64 noundef %9) #4
  %11 = load ptr, ptr %10, align 8
  ret ptr %11
}