; Function Attrs: mustprogress uwtable
define hidden noundef nonnull align 8 dereferenceable(32) ptr @_ZN5zxing6qrcode7Version19getECBlocksForLevelERNS0_20ErrorCorrectionLevelE(ptr nocapture noundef nonnull readonly align 8 dereferenceable(52) %0, ptr noundef nonnull align 8 dereferenceable(40) %1) local_unnamed_addr #2 align 2 {
  %3 = getelementptr inbounds i8, ptr %0, i64 24
  %4 = tail call noundef i32 @_ZNK5zxing6qrcode20ErrorCorrectionLevel7ordinalEv(ptr noundef nonnull align 8 dereferenceable(40) %1)
  %5 = sext i32 %4 to i64
  %6 = load ptr, ptr %3, align 8
  %7 = getelementptr inbounds ptr, ptr %6, i64 %5
  %8 = load ptr, ptr %7, align 8
  ret ptr %8
}